; Function Attrs: null_pointer_is_valid sspstrong uwtable
define internal fastcc noundef zeroext i1 @dissect_obdii_common_temperature(ptr noundef %0, ptr noundef readonly captures(none) %1, ptr noundef %2, i32 noundef %3) unnamed_addr #0 {
  %5 = getelementptr inbounds nuw i8, ptr %1, i64 14
  %6 = load i8, ptr %5, align 2
  %7 = icmp eq i8 %6, 1
  br i1 %7, label %8, label %21

8:                                                ; preds = %4
  %9 = getelementptr inbounds nuw i8, ptr %1, i64 20
  %10 = load i8, ptr %9, align 4
  %11 = zext i8 %10 to i32
  %12 = add nsw i32 %11, -40
  %13 = load ptr, ptr %1, align 8
  %14 = getelementptr inbounds nuw i8, ptr %13, i64 8
  %15 = load ptr, ptr %14, align 8
  tail call void (ptr, i32, ptr, ...) @col_append_fstr(ptr noundef %15, i32 noundef 25, ptr noundef nonnull @.str.360, i32 noundef %12)
  %16 = getelementptr inbounds nuw i8, ptr %1, i64 16
  %17 = load i32, ptr %16, align 8
  %18 = load i8, ptr %5, align 2
  %19 = zext i8 %18 to i32
  %20 = tail call ptr @proto_tree_add_int(ptr noundef %2, i32 noundef %3, ptr noundef %0, i32 noundef %17, i32 noundef %19, i32 noundef %12)
  br label %21

21:                                               ; preds = %4, %8
  ret i1 %7
}